#include <math.h>
#include <stdio.h>
#include <stdlib.h>
#include <string.h>
#define LEN 100
#define ASCII 100
#define MAX_N 100
#define MAX_M 100
#define MAX 100
#define ASC 100
#define null 0
#define Len 100
#define shu 100
#define SUM 100
#define NUMBER 100
#define SIZE 100
#define X 100
#define Y 100
#define len 100
#define MAXN 100
#define MAXSIZE 100
#define maxrow 100
#define maxcol 100
#define num 100
#define mx 100
#define NUM 100
#define ROW 100
#define COL 100
#define SIZEE 100
#define MAX_LEN 100
#define LIU 100
#define maxsize 100
#define NUM 100
#define NO 100
#define Null 0
#define ID_DIGITS 100
#define INT_MAX 100
#define INT_MIN 100
#define FALSE 0
#define TRUE 1


int main()
{
    char ma='A';
    int cnt[ASCII]={0};
    int i,j,n;
    
    struct {
         int id;
         char au[MAX_N+1];
    }bk[MAX_M];
    
    scanf("%d",&n);
    for(i=0;i<n;i++)
      {  scanf("%d%s",&bk[i].id,bk[i].au);
         for(j=0;bk[i].au[j];j++)
           { if(++cnt[bk[i].au[j]]>cnt[ma])
             {
                 ma=bk[i].au[j];
             }
           }
       }

      printf("%c\n%d\n",ma,cnt[ma]);
      for(i=0;i<n;i++)
       {   if(strchr(bk[i].au,ma))
          {
             printf("%d\n",bk[i].id);
          }
       }

   return 0;
}
