; ModuleID = '2/766.c'
source_filename = "2/766.c"
target datalayout = "e-m:e-p270:32:32-p271:32:32-p272:64:64-i64:64-f80:128-n8:16:32:64-S128"
target triple = "x86_64-pc-linux-gnu"

%struct.anon = type { i32, [101 x i8] }

@.str = private unnamed_addr constant [3 x i8] c"%d\00", align 1
@.str.1 = private unnamed_addr constant [5 x i8] c"%d%s\00", align 1
@.str.2 = private unnamed_addr constant [7 x i8] c"%c\0A%d\0A\00", align 1
@.str.3 = private unnamed_addr constant [4 x i8] c"%d\0A\00", align 1

; Function Attrs: noinline nounwind uwtable
define dso_local i32 @main() #0 {
  %1 = alloca i32, align 4
  %2 = alloca i8, align 1
  %3 = alloca [100 x i32], align 16
  %4 = alloca i32, align 4
  %5 = alloca i32, align 4
  %6 = alloca i32, align 4
  %7 = alloca [100 x %struct.anon], align 16
  store i32 0, i32* %1, align 4
  store i8 65, i8* %2, align 1
  %8 = bitcast [100 x i32]* %3 to i8*
  call void @llvm.memset.p0i8.i64(i8* align 16 %8, i8 0, i64 400, i1 false)
  %9 = call i32 (i8*, ...) @__isoc99_scanf(i8* getelementptr inbounds ([3 x i8], [3 x i8]* @.str, i64 0, i64 0), i32* %6)
  store i32 0, i32* %4, align 4
  br label %10

10:                                               ; preds = %67, %0
  %11 = load i32, i32* %4, align 4
  %12 = load i32, i32* %6, align 4
  %13 = icmp slt i32 %11, %12
  br i1 %13, label %14, label %70

14:                                               ; preds = %10
  %15 = load i32, i32* %4, align 4
  %16 = sext i32 %15 to i64
  %17 = getelementptr inbounds [100 x %struct.anon], [100 x %struct.anon]* %7, i64 0, i64 %16
  %18 = getelementptr inbounds %struct.anon, %struct.anon* %17, i32 0, i32 0
  %19 = load i32, i32* %4, align 4
  %20 = sext i32 %19 to i64
  %21 = getelementptr inbounds [100 x %struct.anon], [100 x %struct.anon]* %7, i64 0, i64 %20
  %22 = getelementptr inbounds %struct.anon, %struct.anon* %21, i32 0, i32 1
  %23 = getelementptr inbounds [101 x i8], [101 x i8]* %22, i64 0, i64 0
  %24 = call i32 (i8*, ...) @__isoc99_scanf(i8* getelementptr inbounds ([5 x i8], [5 x i8]* @.str.1, i64 0, i64 0), i32* %18, i8* %23)
  store i32 0, i32* %5, align 4
  br label %25

25:                                               ; preds = %63, %14
  %26 = load i32, i32* %4, align 4
  %27 = sext i32 %26 to i64
  %28 = getelementptr inbounds [100 x %struct.anon], [100 x %struct.anon]* %7, i64 0, i64 %27
  %29 = getelementptr inbounds %struct.anon, %struct.anon* %28, i32 0, i32 1
  %30 = load i32, i32* %5, align 4
  %31 = sext i32 %30 to i64
  %32 = getelementptr inbounds [101 x i8], [101 x i8]* %29, i64 0, i64 %31
  %33 = load i8, i8* %32, align 1
  %34 = icmp ne i8 %33, 0
  br i1 %34, label %35, label %66

35:                                               ; preds = %25
  %36 = load i32, i32* %4, align 4
  %37 = sext i32 %36 to i64
  %38 = getelementptr inbounds [100 x %struct.anon], [100 x %struct.anon]* %7, i64 0, i64 %37
  %39 = getelementptr inbounds %struct.anon, %struct.anon* %38, i32 0, i32 1
  %40 = load i32, i32* %5, align 4
  %41 = sext i32 %40 to i64
  %42 = getelementptr inbounds [101 x i8], [101 x i8]* %39, i64 0, i64 %41
  %43 = load i8, i8* %42, align 1
  %44 = sext i8 %43 to i64
  %45 = getelementptr inbounds [100 x i32], [100 x i32]* %3, i64 0, i64 %44
  %46 = load i32, i32* %45, align 4
  %47 = add nsw i32 %46, 1
  store i32 %47, i32* %45, align 4
  %48 = load i8, i8* %2, align 1
  %49 = sext i8 %48 to i64
  %50 = getelementptr inbounds [100 x i32], [100 x i32]* %3, i64 0, i64 %49
  %51 = load i32, i32* %50, align 4
  %52 = icmp sgt i32 %47, %51
  br i1 %52, label %53, label %62

53:                                               ; preds = %35
  %54 = load i32, i32* %4, align 4
  %55 = sext i32 %54 to i64
  %56 = getelementptr inbounds [100 x %struct.anon], [100 x %struct.anon]* %7, i64 0, i64 %55
  %57 = getelementptr inbounds %struct.anon, %struct.anon* %56, i32 0, i32 1
  %58 = load i32, i32* %5, align 4
  %59 = sext i32 %58 to i64
  %60 = getelementptr inbounds [101 x i8], [101 x i8]* %57, i64 0, i64 %59
  %61 = load i8, i8* %60, align 1
  store i8 %61, i8* %2, align 1
  br label %62

62:                                               ; preds = %53, %35
  br label %63

63:                                               ; preds = %62
  %64 = load i32, i32* %5, align 4
  %65 = add nsw i32 %64, 1
  store i32 %65, i32* %5, align 4
  br label %25

66:                                               ; preds = %25
  br label %67

67:                                               ; preds = %66
  %68 = load i32, i32* %4, align 4
  %69 = add nsw i32 %68, 1
  store i32 %69, i32* %4, align 4
  br label %10

70:                                               ; preds = %10
  %71 = load i8, i8* %2, align 1
  %72 = sext i8 %71 to i32
  %73 = load i8, i8* %2, align 1
  %74 = sext i8 %73 to i64
  %75 = getelementptr inbounds [100 x i32], [100 x i32]* %3, i64 0, i64 %74
  %76 = load i32, i32* %75, align 4
  %77 = call i32 (i8*, ...) @printf(i8* getelementptr inbounds ([7 x i8], [7 x i8]* @.str.2, i64 0, i64 0), i32 %72, i32 %76)
  store i32 0, i32* %4, align 4
  br label %78

78:                                               ; preds = %100, %70
  %79 = load i32, i32* %4, align 4
  %80 = load i32, i32* %6, align 4
  %81 = icmp slt i32 %79, %80
  br i1 %81, label %82, label %103

82:                                               ; preds = %78
  %83 = load i32, i32* %4, align 4
  %84 = sext i32 %83 to i64
  %85 = getelementptr inbounds [100 x %struct.anon], [100 x %struct.anon]* %7, i64 0, i64 %84
  %86 = getelementptr inbounds %struct.anon, %struct.anon* %85, i32 0, i32 1
  %87 = getelementptr inbounds [101 x i8], [101 x i8]* %86, i64 0, i64 0
  %88 = load i8, i8* %2, align 1
  %89 = sext i8 %88 to i32
  %90 = call i8* @strchr(i8* %87, i32 %89) #4
  %91 = icmp ne i8* %90, null
  br i1 %91, label %92, label %99

92:                                               ; preds = %82
  %93 = load i32, i32* %4, align 4
  %94 = sext i32 %93 to i64
  %95 = getelementptr inbounds [100 x %struct.anon], [100 x %struct.anon]* %7, i64 0, i64 %94
  %96 = getelementptr inbounds %struct.anon, %struct.anon* %95, i32 0, i32 0
  %97 = load i32, i32* %96, align 4
  %98 = call i32 (i8*, ...) @printf(i8* getelementptr inbounds ([4 x i8], [4 x i8]* @.str.3, i64 0, i64 0), i32 %97)
  br label %99

99:                                               ; preds = %92, %82
  br label %100

100:                                              ; preds = %99
  %101 = load i32, i32* %4, align 4
  %102 = add nsw i32 %101, 1
  store i32 %102, i32* %4, align 4
  br label %78

103:                                              ; preds = %78
  ret i32 0
}

; Function Attrs: argmemonly nounwind willreturn
declare void @llvm.memset.p0i8.i64(i8* nocapture writeonly, i8, i64, i1 immarg) #1

declare dso_local i32 @__isoc99_scanf(i8*, ...) #2

declare dso_local i32 @printf(i8*, ...) #2

; Function Attrs: nounwind readonly
declare dso_local i8* @strchr(i8*, i32) #3


!llvm.module.flags = !{!0}
!llvm.ident = !{!1}

!0 = !{i32 1, !"wchar_size", i32 4}
!1 = !{!"clang version 10.0.0-4ubuntu1 "}
